; Function Attrs: mustprogress uwtable
define void @_ZN9grpc_core22SubchannelStreamClient9StartCallEv(ptr noundef nonnull align 8 dereferenceable(440) %0) local_unnamed_addr #3 align 2 personality ptr @__gxx_personality_v0 {
  %2 = getelementptr inbounds nuw i8, ptr %0, i64 48
  tail call void @_ZN4absl12lts_202407225Mutex4LockEv(ptr noundef nonnull align 8 dereferenceable(8) %2)
  invoke void @_ZN9grpc_core22SubchannelStreamClient15StartCallLockedEv(ptr noundef nonnull align 8 dereferenceable(440) %0)
          to label %3 unwind label %7

3:                                                ; preds = %1
  invoke void @_ZN4absl12lts_202407225Mutex6UnlockEv(ptr noundef nonnull align 8 dereferenceable(8) %2)
          to label %_ZN4absl12lts_202407229MutexLockD2Ev.exit unwind label %4

4:                                                ; preds = %3
  %5 = landingpad { ptr, i32 }
          catch ptr null
  %6 = extractvalue { ptr, i32 } %5, 0
  tail call void @__clang_call_terminate(ptr %6) #35
  unreachable

_ZN4absl12lts_202407229MutexLockD2Ev.exit:        ; preds = %3
  ret void

7:                                                ; preds = %1
  %8 = landingpad { ptr, i32 }
          cleanup
  invoke void @_ZN4absl12lts_202407225Mutex6UnlockEv(ptr noundef nonnull align 8 dereferenceable(8) %2)
          to label %_ZN4absl12lts_202407229MutexLockD2Ev.exit2 unwind label %9

9:                                                ; preds = %7
  %10 = landingpad { ptr, i32 }
          catch ptr null
  %11 = extractvalue { ptr, i32 } %10, 0
  tail call void @__clang_call_terminate(ptr %11) #35
  unreachable

_ZN4absl12lts_202407229MutexLockD2Ev.exit2:       ; preds = %7
  resume { ptr, i32 } %8
}